; Function Attrs: mustprogress uwtable
define void @_ZN5boost10filesystem6detail15path_algorithms25erase_redundant_separatorERNS0_4pathEm(ptr noundef nonnull align 8 dereferenceable(32) %0, i64 noundef %1) local_unnamed_addr #1 align 2 {
  %.not = icmp ne i64 %1, 0
  %3 = getelementptr inbounds nuw i8, ptr %0, i64 8
  %4 = load i64, ptr %3, align 8
  %5 = icmp ult i64 %1, %4
  %or.cond = select i1 %.not, i1 %5, i1 false
  br i1 %or.cond, label %6, label %13

6:                                                ; preds = %2
  %7 = load ptr, ptr %0, align 8, !tbaa !3
  %8 = getelementptr i8, ptr %7, i64 %1
  %9 = getelementptr i8, ptr %8, i64 1
  %10 = load i8, ptr %9, align 1, !tbaa !11
  %11 = icmp eq i8 %10, 47
  br i1 %11, label %12, label %13

12:                                               ; preds = %6
  tail call void @_ZNSt7__cxx1112basic_stringIcSt11char_traitsIcESaIcEE8_M_eraseEmm(ptr noundef nonnull align 8 dereferenceable(32) %0, i64 noundef %1, i64 noundef 1)
  br label %13

13:                                               ; preds = %12, %6, %2
  ret void
}